; Function Attrs: mustprogress uwtable
define noundef i32 @_ZN8proxygen11HTTP1xCodec15onChunkCompleteEv(ptr nocapture noundef nonnull align 8 dereferenceable(428) %this) local_unnamed_addr #3 align 2 {
entry:
  %inRecvLastChunk_ = getelementptr inbounds i8, ptr %this, i64 424
  %bf.load = load i32, ptr %inRecvLastChunk_, align 8
  %0 = and i32 %bf.load, 262144
  %bf.cast.not = icmp eq i32 %0, 0
  br i1 %bf.cast.not, label %if.else, label %if.then

if.then:                                          ; preds = %entry
  %bf.clear4 = and i32 %bf.load, -262145
  store i32 %bf.clear4, ptr %inRecvLastChunk_, align 8
  br label %if.end

if.else:                                          ; preds = %entry
  %callback_ = getelementptr inbounds i8, ptr %this, i64 40
  %1 = load ptr, ptr %callback_, align 8
  %ingressTxnID_ = getelementptr inbounds i8, ptr %this, i64 48
  %2 = load i64, ptr %ingressTxnID_, align 8
  %vtable = load ptr, ptr %1, align 8
  %vfn = getelementptr inbounds i8, ptr %vtable, i64 48
  %3 = load ptr, ptr %vfn, align 8
  tail call void %3(ptr noundef nonnull align 8 dereferenceable(8) %1, i64 noundef %2)
  br label %if.end

if.end:                                           ; preds = %if.else, %if.then
  ret i32 0
}